ARM GAS  C:\Users\tre\AppData\Local\Temp\cccsskEs.s 			page 1


   1              		.cpu cortex-m3
   2              		.arch armv7-m
   3              		.fpu softvfp
   4              		.eabi_attribute 20, 1
   5              		.eabi_attribute 21, 1
   6              		.eabi_attribute 23, 3
   7              		.eabi_attribute 24, 1
   8              		.eabi_attribute 25, 1
   9              		.eabi_attribute 26, 1
  10              		.eabi_attribute 30, 1
  11              		.eabi_attribute 34, 1
  12              		.eabi_attribute 18, 4
  13              		.file	"servo.c"
  14              		.text
  15              	.Ltext0:
  16              		.cfi_sections	.debug_frame
  17              		.global	__aeabi_ui2f
  18              		.global	__aeabi_fmul
  19              		.global	__aeabi_fdiv
  20              		.global	__aeabi_fadd
  21              		.global	__aeabi_f2uiz
  22              		.global	__aeabi_i2f
  23              		.section	.text.Servo_SetAngle,"ax",%progbits
  24              		.align	1
  25              		.global	Servo_SetAngle
  26              		.syntax unified
  27              		.thumb
  28              		.thumb_func
  30              	Servo_SetAngle:
  31              	.LVL0:
  32              	.LFB74:
  33              		.file 1 "BSP/servo.c"
   1:BSP/servo.c   **** #include "servo.h"
   2:BSP/servo.c   **** #include "uart.h"
   3:BSP/servo.c   **** 
   4:BSP/servo.c   **** TaskHandle_t ServoHandle;
   5:BSP/servo.c   **** 
   6:BSP/servo.c   **** /* 舵机任务 */
   7:BSP/servo.c   **** void Servo_Task(void *argument)
   8:BSP/servo.c   **** {
   9:BSP/servo.c   **** 	Servo_Config();//舵机初始化
  10:BSP/servo.c   **** 	UartPrintf("Servo_Task");
  11:BSP/servo.c   **** 
  12:BSP/servo.c   **** 	uint32_t value=0;
  13:BSP/servo.c   **** 	while(1)
  14:BSP/servo.c   **** 	{
  15:BSP/servo.c   ****         // Servo_SetAngle(3,0);
  16:BSP/servo.c   ****         // vTaskDelay(pdMS_TO_TICKS(4000));
  17:BSP/servo.c   ****         // Servo_SetAngle(3,90);
  18:BSP/servo.c   ****         // vTaskDelay(pdMS_TO_TICKS(2000));
  19:BSP/servo.c   ****         // Servo_SetAngle(3,180);
  20:BSP/servo.c   ****         // vTaskDelay(pdMS_TO_TICKS(2000));
  21:BSP/servo.c   ****         // Servo_SetAngle(3,270);
  22:BSP/servo.c   ****         vTaskDelay(pdMS_TO_TICKS(2000));
  23:BSP/servo.c   ****  	}
  24:BSP/servo.c   **** }
  25:BSP/servo.c   **** 
ARM GAS  C:\Users\tre\AppData\Local\Temp\cccsskEs.s 			page 2


  26:BSP/servo.c   **** 
  27:BSP/servo.c   **** /*
  28:BSP/servo.c   **** 	舵机设置
  29:BSP/servo.c   **** */
  30:BSP/servo.c   **** void Servo_Config()
  31:BSP/servo.c   **** {
  32:BSP/servo.c   ****     HAL_TIM_PWM_Start(&SERVO3_TIM, SERVO3_CHANNEL);
  33:BSP/servo.c   ****     HAL_TIM_PWM_Start(&SERVO4_TIM, SERVO4_CHANNEL);
  34:BSP/servo.c   ****     Servo_SetAngle(3, 90);
  35:BSP/servo.c   ****     Servo_SetAngle(4, 0);
  36:BSP/servo.c   **** 
  37:BSP/servo.c   **** }
  38:BSP/servo.c   **** 
  39:BSP/servo.c   **** // 设置舵机角度，根据不同舵机的最大角度分开处理
  40:BSP/servo.c   **** void Servo_SetAngle(uint8_t servo, uint16_t angle) {
  34              		.loc 1 40 52 view -0
  35              		.cfi_startproc
  36              		@ args = 0, pretend = 0, frame = 0
  37              		@ frame_needed = 0, uses_anonymous_args = 0
  38              		.loc 1 40 52 is_stmt 0 view .LVU1
  39 0000 10B5     		push	{r4, lr}
  40              	.LCFI0:
  41              		.cfi_def_cfa_offset 8
  42              		.cfi_offset 4, -8
  43              		.cfi_offset 14, -4
  41:BSP/servo.c   ****     float pulse_width = SERVO_MIN_PULSE;  // 初始化脉宽
  44              		.loc 1 41 5 is_stmt 1 view .LVU2
  45              	.LVL1:
  42:BSP/servo.c   **** 
  43:BSP/servo.c   ****     switch (servo) {
  46              		.loc 1 43 5 view .LVU3
  47 0002 0138     		subs	r0, r0, #1
  48              	.LVL2:
  49              		.loc 1 43 5 is_stmt 0 view .LVU4
  50 0004 0328     		cmp	r0, #3
  51 0006 17D8     		bhi	.L1
  52 0008 DFE800F0 		tbb	[pc, r0]
  53              	.L4:
  54 000c 02       		.byte	(.L7-.L4)/2
  55 000d 17       		.byte	(.L6-.L4)/2
  56 000e 2F       		.byte	(.L5-.L4)/2
  57 000f 49       		.byte	(.L3-.L4)/2
  58              		.p2align 1
  59              	.L7:
  44:BSP/servo.c   ****         case 1:
  45:BSP/servo.c   ****             if (angle > SERVO1_MAX_ANGLE) {
  60              		.loc 1 45 13 is_stmt 1 view .LVU5
  61              		.loc 1 45 16 is_stmt 0 view .LVU6
  62 0010 B429     		cmp	r1, #180
  63 0012 00D9     		bls	.L8
  46:BSP/servo.c   ****                 angle = SERVO1_MAX_ANGLE;  // 限制角度最大为舵机1的最大角度
  64              		.loc 1 46 23 view .LVU7
  65 0014 B421     		movs	r1, #180
  66              	.LVL3:
  67              	.L8:
  47:BSP/servo.c   ****             }
  48:BSP/servo.c   ****             pulse_width = SERVO_MIN_PULSE + (SERVO_MAX_PULSE - SERVO_MIN_PULSE) *(float) angle / SE
ARM GAS  C:\Users\tre\AppData\Local\Temp\cccsskEs.s 			page 3


  68              		.loc 1 48 13 is_stmt 1 view .LVU8
  69              		.loc 1 48 82 is_stmt 0 view .LVU9
  70 0016 0846     		mov	r0, r1
  71 0018 FFF7FEFF 		bl	__aeabi_ui2f
  72              	.LVL4:
  73              		.loc 1 48 81 view .LVU10
  74 001c 2C49     		ldr	r1, .L17
  75 001e FFF7FEFF 		bl	__aeabi_fmul
  76              	.LVL5:
  77              		.loc 1 48 96 view .LVU11
  78 0022 2C49     		ldr	r1, .L17+4
  79 0024 FFF7FEFF 		bl	__aeabi_fdiv
  80              	.LVL6:
  81              		.loc 1 48 25 view .LVU12
  82 0028 2B49     		ldr	r1, .L17+8
  83 002a FFF7FEFF 		bl	__aeabi_fadd
  84              	.LVL7:
  49:BSP/servo.c   ****             __HAL_TIM_SET_COMPARE(&htim3, SERVO1_CHANNEL, (uint32_t)pulse_width);
  85              		.loc 1 49 13 is_stmt 1 view .LVU13
  86 002e 2B4B     		ldr	r3, .L17+12
  87 0030 1C68     		ldr	r4, [r3]
  88 0032 FFF7FEFF 		bl	__aeabi_f2uiz
  89              	.LVL8:
  90              		.loc 1 49 13 is_stmt 0 view .LVU14
  91 0036 6063     		str	r0, [r4, #52]
  50:BSP/servo.c   ****             break;
  92              		.loc 1 50 13 is_stmt 1 view .LVU15
  93              	.L1:
  51:BSP/servo.c   **** 
  52:BSP/servo.c   ****         case 2:
  53:BSP/servo.c   ****             if (angle > SERVO2_MAX_ANGLE) {
  54:BSP/servo.c   ****                 angle = SERVO2_MAX_ANGLE;  // 限制角度最大为舵机2的最大角度
  55:BSP/servo.c   ****             }
  56:BSP/servo.c   ****             pulse_width = SERVO_MIN_PULSE + (SERVO_MAX_PULSE - SERVO_MIN_PULSE) * angle / SERVO2_MA
  57:BSP/servo.c   ****             __HAL_TIM_SET_COMPARE(&htim3, SERVO2_CHANNEL, pulse_width);
  58:BSP/servo.c   ****             break;
  59:BSP/servo.c   **** 
  60:BSP/servo.c   ****         case 3:
  61:BSP/servo.c   ****             if (angle > SERVO3_MAX_ANGLE) {
  62:BSP/servo.c   ****                 angle = SERVO3_MAX_ANGLE;  // 限制角度最大为舵机3的最大角度
  63:BSP/servo.c   ****             }
  64:BSP/servo.c   ****             pulse_width = SERVO_MIN_PULSE + (SERVO_MAX_PULSE - SERVO_MIN_PULSE) * angle / SERVO3_MA
  65:BSP/servo.c   ****             __HAL_TIM_SET_COMPARE(&htim3, SERVO3_CHANNEL, pulse_width);
  66:BSP/servo.c   ****             break;
  67:BSP/servo.c   **** 
  68:BSP/servo.c   ****         case 4:
  69:BSP/servo.c   ****             if (angle > SERVO4_MAX_ANGLE) {
  70:BSP/servo.c   ****                 angle = SERVO4_MAX_ANGLE;  // 限制角度最大为舵机4的最大角度
  71:BSP/servo.c   ****             }
  72:BSP/servo.c   ****             pulse_width = SERVO_MIN_PULSE + (SERVO_MAX_PULSE - SERVO_MIN_PULSE) * angle / SERVO4_MA
  73:BSP/servo.c   ****             __HAL_TIM_SET_COMPARE(&htim3, SERVO4_CHANNEL, pulse_width);
  74:BSP/servo.c   ****             break;
  75:BSP/servo.c   **** 
  76:BSP/servo.c   ****         default:
  77:BSP/servo.c   ****             break;
  78:BSP/servo.c   ****     }
  79:BSP/servo.c   **** }
ARM GAS  C:\Users\tre\AppData\Local\Temp\cccsskEs.s 			page 4


  94              		.loc 1 79 1 is_stmt 0 view .LVU16
  95 0038 10BD     		pop	{r4, pc}
  96              	.LVL9:
  97              	.L6:
  53:BSP/servo.c   ****                 angle = SERVO2_MAX_ANGLE;  // 限制角度最大为舵机2的最大角度
  98              		.loc 1 53 13 is_stmt 1 view .LVU17
  53:BSP/servo.c   ****                 angle = SERVO2_MAX_ANGLE;  // 限制角度最大为舵机2的最大角度
  99              		.loc 1 53 16 is_stmt 0 view .LVU18
 100 003a B429     		cmp	r1, #180
 101 003c 00D9     		bls	.L9
  54:BSP/servo.c   ****             }
 102              		.loc 1 54 23 view .LVU19
 103 003e B421     		movs	r1, #180
 104              	.LVL10:
 105              	.L9:
  56:BSP/servo.c   ****             __HAL_TIM_SET_COMPARE(&htim3, SERVO2_CHANNEL, pulse_width);
 106              		.loc 1 56 13 is_stmt 1 view .LVU20
  56:BSP/servo.c   ****             __HAL_TIM_SET_COMPARE(&htim3, SERVO2_CHANNEL, pulse_width);
 107              		.loc 1 56 81 is_stmt 0 view .LVU21
 108 0040 4FF4FA60 		mov	r0, #2000
 109 0044 00FB01F1 		mul	r1, r0, r1
 110              	.LVL11:
  56:BSP/servo.c   ****             __HAL_TIM_SET_COMPARE(&htim3, SERVO2_CHANNEL, pulse_width);
 111              		.loc 1 56 89 view .LVU22
 112 0048 2548     		ldr	r0, .L17+16
 113 004a 80FB0130 		smull	r3, r0, r0, r1
 114 004e 0844     		add	r0, r0, r1
 115 0050 C917     		asrs	r1, r1, #31
 116 0052 C1EBE010 		rsb	r0, r1, r0, asr #7
  56:BSP/servo.c   ****             __HAL_TIM_SET_COMPARE(&htim3, SERVO2_CHANNEL, pulse_width);
 117              		.loc 1 56 25 view .LVU23
 118 0056 00F5FA70 		add	r0, r0, #500
 119 005a FFF7FEFF 		bl	__aeabi_i2f
 120              	.LVL12:
  57:BSP/servo.c   ****             break;
 121              		.loc 1 57 13 is_stmt 1 view .LVU24
 122 005e 1F4B     		ldr	r3, .L17+12
 123 0060 1C68     		ldr	r4, [r3]
 124 0062 FFF7FEFF 		bl	__aeabi_f2uiz
 125              	.LVL13:
  57:BSP/servo.c   ****             break;
 126              		.loc 1 57 13 is_stmt 0 view .LVU25
 127 0066 A063     		str	r0, [r4, #56]
  58:BSP/servo.c   **** 
 128              		.loc 1 58 13 is_stmt 1 view .LVU26
 129 0068 E6E7     		b	.L1
 130              	.LVL14:
 131              	.L5:
  61:BSP/servo.c   ****                 angle = SERVO3_MAX_ANGLE;  // 限制角度最大为舵机3的最大角度
 132              		.loc 1 61 13 view .LVU27
  61:BSP/servo.c   ****                 angle = SERVO3_MAX_ANGLE;  // 限制角度最大为舵机3的最大角度
 133              		.loc 1 61 16 is_stmt 0 view .LVU28
 134 006a B1F5877F 		cmp	r1, #270
 135 006e 01D9     		bls	.L10
  62:BSP/servo.c   ****             }
 136              		.loc 1 62 23 view .LVU29
 137 0070 4FF48771 		mov	r1, #270
ARM GAS  C:\Users\tre\AppData\Local\Temp\cccsskEs.s 			page 5


 138              	.LVL15:
 139              	.L10:
  64:BSP/servo.c   ****             __HAL_TIM_SET_COMPARE(&htim3, SERVO3_CHANNEL, pulse_width);
 140              		.loc 1 64 13 is_stmt 1 view .LVU30
  64:BSP/servo.c   ****             __HAL_TIM_SET_COMPARE(&htim3, SERVO3_CHANNEL, pulse_width);
 141              		.loc 1 64 81 is_stmt 0 view .LVU31
 142 0074 4FF4FA60 		mov	r0, #2000
 143 0078 00FB01F1 		mul	r1, r0, r1
 144              	.LVL16:
  64:BSP/servo.c   ****             __HAL_TIM_SET_COMPARE(&htim3, SERVO3_CHANNEL, pulse_width);
 145              		.loc 1 64 89 view .LVU32
 146 007c 1948     		ldr	r0, .L17+20
 147 007e 80FB0130 		smull	r3, r0, r0, r1
 148 0082 0844     		add	r0, r0, r1
 149 0084 C917     		asrs	r1, r1, #31
 150 0086 C1EB2020 		rsb	r0, r1, r0, asr #8
  64:BSP/servo.c   ****             __HAL_TIM_SET_COMPARE(&htim3, SERVO3_CHANNEL, pulse_width);
 151              		.loc 1 64 25 view .LVU33
 152 008a 00F5FA70 		add	r0, r0, #500
 153 008e FFF7FEFF 		bl	__aeabi_i2f
 154              	.LVL17:
  65:BSP/servo.c   ****             break;
 155              		.loc 1 65 13 is_stmt 1 view .LVU34
 156 0092 124B     		ldr	r3, .L17+12
 157 0094 1C68     		ldr	r4, [r3]
 158 0096 FFF7FEFF 		bl	__aeabi_f2uiz
 159              	.LVL18:
  65:BSP/servo.c   ****             break;
 160              		.loc 1 65 13 is_stmt 0 view .LVU35
 161 009a E063     		str	r0, [r4, #60]
  66:BSP/servo.c   **** 
 162              		.loc 1 66 13 is_stmt 1 view .LVU36
 163 009c CCE7     		b	.L1
 164              	.LVL19:
 165              	.L3:
  69:BSP/servo.c   ****                 angle = SERVO4_MAX_ANGLE;  // 限制角度最大为舵机4的最大角度
 166              		.loc 1 69 13 view .LVU37
  69:BSP/servo.c   ****                 angle = SERVO4_MAX_ANGLE;  // 限制角度最大为舵机4的最大角度
 167              		.loc 1 69 16 is_stmt 0 view .LVU38
 168 009e B429     		cmp	r1, #180
 169 00a0 00D9     		bls	.L11
  70:BSP/servo.c   ****             }
 170              		.loc 1 70 23 view .LVU39
 171 00a2 B421     		movs	r1, #180
 172              	.LVL20:
 173              	.L11:
  72:BSP/servo.c   ****             __HAL_TIM_SET_COMPARE(&htim3, SERVO4_CHANNEL, pulse_width);
 174              		.loc 1 72 13 is_stmt 1 view .LVU40
  72:BSP/servo.c   ****             __HAL_TIM_SET_COMPARE(&htim3, SERVO4_CHANNEL, pulse_width);
 175              		.loc 1 72 81 is_stmt 0 view .LVU41
 176 00a4 4FF4FA60 		mov	r0, #2000
 177 00a8 00FB01F1 		mul	r1, r0, r1
 178              	.LVL21:
  72:BSP/servo.c   ****             __HAL_TIM_SET_COMPARE(&htim3, SERVO4_CHANNEL, pulse_width);
 179              		.loc 1 72 89 view .LVU42
 180 00ac 0C48     		ldr	r0, .L17+16
 181 00ae 80FB0130 		smull	r3, r0, r0, r1
ARM GAS  C:\Users\tre\AppData\Local\Temp\cccsskEs.s 			page 6


 182 00b2 0844     		add	r0, r0, r1
 183 00b4 C917     		asrs	r1, r1, #31
 184 00b6 C1EBE010 		rsb	r0, r1, r0, asr #7
  72:BSP/servo.c   ****             __HAL_TIM_SET_COMPARE(&htim3, SERVO4_CHANNEL, pulse_width);
 185              		.loc 1 72 25 view .LVU43
 186 00ba 00F5FA70 		add	r0, r0, #500
 187 00be FFF7FEFF 		bl	__aeabi_i2f
 188              	.LVL22:
  73:BSP/servo.c   ****             break;
 189              		.loc 1 73 13 is_stmt 1 view .LVU44
 190 00c2 064B     		ldr	r3, .L17+12
 191 00c4 1C68     		ldr	r4, [r3]
 192 00c6 FFF7FEFF 		bl	__aeabi_f2uiz
 193              	.LVL23:
  73:BSP/servo.c   ****             break;
 194              		.loc 1 73 13 is_stmt 0 view .LVU45
 195 00ca 2064     		str	r0, [r4, #64]
  74:BSP/servo.c   **** 
 196              		.loc 1 74 13 is_stmt 1 view .LVU46
 197              		.loc 1 79 1 is_stmt 0 view .LVU47
 198 00cc B4E7     		b	.L1
 199              	.L18:
 200 00ce 00BF     		.align	2
 201              	.L17:
 202 00d0 0000FA44 		.word	1157234688
 203 00d4 00003443 		.word	1127481344
 204 00d8 0000FA43 		.word	1140457472
 205 00dc 00000000 		.word	htim3
 206 00e0 B7600BB6 		.word	-1240768329
 207 00e4 49D6B9F2 		.word	-222702007
 208              		.cfi_endproc
 209              	.LFE74:
 211              		.section	.text.Servo_Config,"ax",%progbits
 212              		.align	1
 213              		.global	Servo_Config
 214              		.syntax unified
 215              		.thumb
 216              		.thumb_func
 218              	Servo_Config:
 219              	.LFB73:
  31:BSP/servo.c   ****     HAL_TIM_PWM_Start(&SERVO3_TIM, SERVO3_CHANNEL);
 220              		.loc 1 31 1 is_stmt 1 view -0
 221              		.cfi_startproc
 222              		@ args = 0, pretend = 0, frame = 0
 223              		@ frame_needed = 0, uses_anonymous_args = 0
 224 0000 10B5     		push	{r4, lr}
 225              	.LCFI1:
 226              		.cfi_def_cfa_offset 8
 227              		.cfi_offset 4, -8
 228              		.cfi_offset 14, -4
  32:BSP/servo.c   ****     HAL_TIM_PWM_Start(&SERVO4_TIM, SERVO4_CHANNEL);
 229              		.loc 1 32 5 view .LVU49
 230 0002 094C     		ldr	r4, .L21
 231 0004 0821     		movs	r1, #8
 232 0006 2046     		mov	r0, r4
 233 0008 FFF7FEFF 		bl	HAL_TIM_PWM_Start
 234              	.LVL24:
ARM GAS  C:\Users\tre\AppData\Local\Temp\cccsskEs.s 			page 7


  33:BSP/servo.c   ****     Servo_SetAngle(3, 90);
 235              		.loc 1 33 5 view .LVU50
 236 000c 0C21     		movs	r1, #12
 237 000e 2046     		mov	r0, r4
 238 0010 FFF7FEFF 		bl	HAL_TIM_PWM_Start
 239              	.LVL25:
  34:BSP/servo.c   ****     Servo_SetAngle(4, 0);
 240              		.loc 1 34 5 view .LVU51
 241 0014 5A21     		movs	r1, #90
 242 0016 0320     		movs	r0, #3
 243 0018 FFF7FEFF 		bl	Servo_SetAngle
 244              	.LVL26:
  35:BSP/servo.c   **** 
 245              		.loc 1 35 5 view .LVU52
 246 001c 0021     		movs	r1, #0
 247 001e 0420     		movs	r0, #4
 248 0020 FFF7FEFF 		bl	Servo_SetAngle
 249              	.LVL27:
  37:BSP/servo.c   **** 
 250              		.loc 1 37 1 is_stmt 0 view .LVU53
 251 0024 10BD     		pop	{r4, pc}
 252              	.L22:
 253 0026 00BF     		.align	2
 254              	.L21:
 255 0028 00000000 		.word	htim3
 256              		.cfi_endproc
 257              	.LFE73:
 259              		.section	.rodata.Servo_Task.str1.4,"aMS",%progbits,1
 260              		.align	2
 261              	.LC0:
 262 0000 53657276 		.ascii	"Servo_Task\000"
 262      6F5F5461 
 262      736B00
 263              		.section	.text.Servo_Task,"ax",%progbits
 264              		.align	1
 265              		.global	Servo_Task
 266              		.syntax unified
 267              		.thumb
 268              		.thumb_func
 270              	Servo_Task:
 271              	.LVL28:
 272              	.LFB72:
   8:BSP/servo.c   **** 	Servo_Config();//舵机初始化
 273              		.loc 1 8 1 is_stmt 1 view -0
 274              		.cfi_startproc
 275              		@ args = 0, pretend = 0, frame = 0
 276              		@ frame_needed = 0, uses_anonymous_args = 0
   8:BSP/servo.c   **** 	Servo_Config();//舵机初始化
 277              		.loc 1 8 1 is_stmt 0 view .LVU55
 278 0000 08B5     		push	{r3, lr}
 279              	.LCFI2:
 280              		.cfi_def_cfa_offset 8
 281              		.cfi_offset 3, -8
 282              		.cfi_offset 14, -4
   9:BSP/servo.c   **** 	UartPrintf("Servo_Task");
 283              		.loc 1 9 2 is_stmt 1 view .LVU56
 284 0002 FFF7FEFF 		bl	Servo_Config
ARM GAS  C:\Users\tre\AppData\Local\Temp\cccsskEs.s 			page 8


 285              	.LVL29:
  10:BSP/servo.c   **** 
 286              		.loc 1 10 2 view .LVU57
 287 0006 0448     		ldr	r0, .L26
 288 0008 FFF7FEFF 		bl	UartPrintf
 289              	.LVL30:
  12:BSP/servo.c   **** 	while(1)
 290              		.loc 1 12 2 view .LVU58
 291              	.L24:
  13:BSP/servo.c   **** 	{
 292              		.loc 1 13 2 discriminator 1 view .LVU59
  22:BSP/servo.c   ****  	}
 293              		.loc 1 22 9 discriminator 1 view .LVU60
 294 000c 4FF4FA60 		mov	r0, #2000
 295 0010 FFF7FEFF 		bl	vTaskDelay
 296              	.LVL31:
  13:BSP/servo.c   **** 	{
 297              		.loc 1 13 7 discriminator 1 view .LVU61
 298 0014 FAE7     		b	.L24
 299              	.L27:
 300 0016 00BF     		.align	2
 301              	.L26:
 302 0018 00000000 		.word	.LC0
 303              		.cfi_endproc
 304              	.LFE72:
 306              		.global	ServoHandle
 307              		.section	.bss.ServoHandle,"aw",%nobits
 308              		.align	2
 311              	ServoHandle:
 312 0000 00000000 		.space	4
 313              		.text
 314              	.Letext0:
 315              		.file 2 "d:\\program files (x86)\\gnu arm embedded toolchain\\10 2021.10\\arm-none-eabi\\include\\
 316              		.file 3 "d:\\program files (x86)\\gnu arm embedded toolchain\\10 2021.10\\arm-none-eabi\\include\\
 317              		.file 4 "Middlewares/Third_Party/FreeRTOS/Source/portable/GCC/ARM_CM3/portmacro.h"
 318              		.file 5 "Middlewares/Third_Party/FreeRTOS/Source/include/task.h"
 319              		.file 6 "Drivers/CMSIS/Device/ST/STM32F1xx/Include/stm32f103xb.h"
 320              		.file 7 "Drivers/STM32F1xx_HAL_Driver/Inc/stm32f1xx_hal_def.h"
 321              		.file 8 "Drivers/STM32F1xx_HAL_Driver/Inc/stm32f1xx_hal_dma.h"
 322              		.file 9 "Drivers/STM32F1xx_HAL_Driver/Inc/stm32f1xx_hal_tim.h"
 323              		.file 10 "Core/Inc/tim.h"
 324              		.file 11 "BSP/servo.h"
 325              		.file 12 "BSP/uart.h"
ARM GAS  C:\Users\tre\AppData\Local\Temp\cccsskEs.s 			page 9

